; Function Attrs: nounwind sspstrong uwtable
define hidden void @ruby_init_setproctitle(i32 noundef %0, ptr noundef %1) local_unnamed_addr #0 {
  %3 = load ptr, ptr @environ, align 8, !tbaa !7
  %4 = icmp eq i32 %0, 0
  br i1 %4, label %62, label %5

5:                                                ; preds = %2
  %6 = load ptr, ptr %1, align 8, !tbaa !12
  %7 = icmp eq ptr %6, null
  br i1 %7, label %62, label %.preheader53

.preheader53:                                     ; preds = %5, %.preheader53
  %.0 = phi i32 [ %11, %.preheader53 ], [ 0, %5 ]
  %8 = sext i32 %.0 to i64
  %9 = getelementptr ptr, ptr %3, i64 %8
  %10 = load ptr, ptr %9, align 8, !tbaa !12
  %.not = icmp eq ptr %10, null
  %11 = add i32 %.0, 1
  br i1 %.not, label %12, label %.preheader53, !llvm.loop !14

12:                                               ; preds = %.preheader53
  store ptr %3, ptr @system_environ, align 8, !tbaa !7
  %13 = sext i32 %11 to i64
  %14 = tail call noalias nonnull ptr @ruby_xcalloc(i64 noundef %13, i64 noundef 8) #8
  store ptr %14, ptr @alloc_environ, align 8, !tbaa !7
  %15 = tail call noalias nonnull ptr @ruby_xcalloc(i64 noundef %13, i64 noundef 8) #8
  store ptr %15, ptr @environ, align 8, !tbaa !7
  store ptr %15, ptr @orig_environ, align 8, !tbaa !7
  %16 = icmp sgt i32 %0, 0
  br i1 %16, label %.lr.ph.preheader, label %.preheader

.lr.ph.preheader:                                 ; preds = %12
  %wide.trip.count = zext nneg i32 %0 to i64
  br label %.lr.ph

.preheader:                                       ; preds = %28, %12
  %.044.lcssa = phi ptr [ null, %12 ], [ %.145, %28 ]
  %17 = load ptr, ptr %3, align 8, !tbaa !12
  %.not5156 = icmp eq ptr %17, null
  br i1 %.not5156, label %._crit_edge, label %.lr.ph59

.lr.ph:                                           ; preds = %.lr.ph.preheader, %28
  %indvars.iv = phi i64 [ 0, %.lr.ph.preheader ], [ %indvars.iv.next, %28 ]
  %.04454 = phi ptr [ null, %.lr.ph.preheader ], [ %.145, %28 ]
  %18 = icmp eq ptr %.04454, null
  br i1 %18, label %.lr.ph._crit_edge, label %19

.lr.ph._crit_edge:                                ; preds = %.lr.ph
  %.phi.trans.insert = getelementptr ptr, ptr %1, i64 %indvars.iv
  %.pre = load ptr, ptr %.phi.trans.insert, align 8, !tbaa !12
  br label %24

19:                                               ; preds = %.lr.ph
  %20 = getelementptr i8, ptr %.04454, i64 1
  %21 = getelementptr ptr, ptr %1, i64 %indvars.iv
  %22 = load ptr, ptr %21, align 8, !tbaa !12
  %23 = icmp eq ptr %20, %22
  br i1 %23, label %24, label %28

24:                                               ; preds = %.lr.ph._crit_edge, %19
  %25 = phi ptr [ %.pre, %.lr.ph._crit_edge ], [ %22, %19 ]
  %26 = tail call i64 @strlen(ptr noundef nonnull dereferenceable(1) %25) #9
  %27 = getelementptr i8, ptr %25, i64 %26
  br label %28

28:                                               ; preds = %19, %24
  %.145 = phi ptr [ %27, %24 ], [ %.04454, %19 ]
  %indvars.iv.next = add nuw nsw i64 %indvars.iv, 1
  %exitcond.not = icmp eq i64 %indvars.iv.next, %wide.trip.count
  br i1 %exitcond.not, label %.preheader, label %.lr.ph, !llvm.loop !16

.lr.ph59:                                         ; preds = %.preheader, %35
  %29 = phi ptr [ %39, %35 ], [ %17, %.preheader ]
  %.258 = phi i32 [ %36, %35 ], [ 0, %.preheader ]
  %.04657 = phi ptr [ %.147, %35 ], [ %.044.lcssa, %.preheader ]
  %30 = getelementptr i8, ptr %.04657, i64 1
  %31 = icmp eq ptr %30, %29
  br i1 %31, label %32, label %35

32:                                               ; preds = %.lr.ph59
  %33 = tail call i64 @strlen(ptr noundef nonnull dereferenceable(1) %29) #9
  %34 = getelementptr i8, ptr %29, i64 %33
  br label %35

35:                                               ; preds = %.lr.ph59, %32
  %.147 = phi ptr [ %34, %32 ], [ %.04657, %.lr.ph59 ]
  %36 = add i32 %.258, 1
  %37 = sext i32 %36 to i64
  %38 = getelementptr ptr, ptr %3, i64 %37
  %39 = load ptr, ptr %38, align 8, !tbaa !12
  %.not51 = icmp eq ptr %39, null
  br i1 %.not51, label %._crit_edge, label %.lr.ph59, !llvm.loop !17

._crit_edge:                                      ; preds = %35, %.preheader
  %.046.lcssa = phi ptr [ %.044.lcssa, %.preheader ], [ %.147, %35 ]
  %40 = getelementptr i8, ptr %1, i64 8
  store ptr %40, ptr @argv1_addr, align 8, !tbaa !7
  %41 = load ptr, ptr %1, align 8, !tbaa !12
  store ptr %41, ptr @argv_start, align 8, !tbaa !12
  %42 = ptrtoint ptr %.044.lcssa to i64
  %43 = ptrtoint ptr %41 to i64
  %44 = sub i64 %42, %43
  store i64 %44, ptr @argv_len, align 8, !tbaa !18
  %45 = ptrtoint ptr %.046.lcssa to i64
  %46 = sub i64 %45, %43
  store i64 %46, ptr @argv_env_len, align 8, !tbaa !18
  br i1 %.not5156, label %._crit_edge.._crit_edge65_crit_edge, label %.lr.ph64

._crit_edge.._crit_edge65_crit_edge:              ; preds = %._crit_edge
  %.pre69 = load ptr, ptr @alloc_environ, align 8, !tbaa !7
  br label %._crit_edge65

.lr.ph64:                                         ; preds = %._crit_edge, %.lr.ph64
  %47 = phi ptr [ %57, %.lr.ph64 ], [ %17, %._crit_edge ]
  %48 = phi i64 [ %55, %.lr.ph64 ], [ 0, %._crit_edge ]
  %.362 = phi i32 [ %54, %.lr.ph64 ], [ 0, %._crit_edge ]
  %49 = tail call noalias nonnull ptr @ruby_strdup(ptr noundef nonnull %47) #10
  %50 = load ptr, ptr @environ, align 8, !tbaa !7
  %51 = getelementptr ptr, ptr %50, i64 %48
  store ptr %49, ptr %51, align 8, !tbaa !12
  %52 = load ptr, ptr @alloc_environ, align 8, !tbaa !7
  %53 = getelementptr ptr, ptr %52, i64 %48
  store ptr %49, ptr %53, align 8, !tbaa !12
  %54 = add i32 %.362, 1
  %55 = sext i32 %54 to i64
  %56 = getelementptr ptr, ptr %3, i64 %55
  %57 = load ptr, ptr %56, align 8, !tbaa !12
  %.not52 = icmp eq ptr %57, null
  br i1 %.not52, label %._crit_edge65, label %.lr.ph64, !llvm.loop !20

._crit_edge65:                                    ; preds = %.lr.ph64, %._crit_edge.._crit_edge65_crit_edge
  %58 = phi ptr [ %.pre69, %._crit_edge.._crit_edge65_crit_edge ], [ %52, %.lr.ph64 ]
  %59 = phi ptr [ %15, %._crit_edge.._crit_edge65_crit_edge ], [ %50, %.lr.ph64 ]
  %.lcssa = phi i64 [ 0, %._crit_edge.._crit_edge65_crit_edge ], [ %55, %.lr.ph64 ]
  %60 = getelementptr ptr, ptr %59, i64 %.lcssa
  store ptr null, ptr %60, align 8, !tbaa !12
  %61 = getelementptr ptr, ptr %58, i64 %.lcssa
  store ptr null, ptr %61, align 8, !tbaa !12
  br label %62

62:                                               ; preds = %2, %5, %._crit_edge65
  ret void
}